target datalayout = "e-m:e-p270:32:32-p271:32:32-p272:64:64-i64:64-i128:128-f80:128-n8:16:32:64-S128"
target triple = "x86_64-pc-linux-gnu"

%struct.trace_key = type { ptr, i32, i8 }
%struct.index_state = type { ptr, i32, i32, i32, i32, ptr, ptr, ptr, %struct.cache_time, i8, i32, %struct.hashmap, %struct.hashmap, %struct.object_id, ptr, ptr, ptr, ptr, ptr, ptr, ptr }
%struct.cache_time = type { i32, i32 }
%struct.hashmap = type { ptr, ptr, ptr, i32, i32, i32, i32, i8 }
%struct.object_id = type { [32 x i8], i32 }
%struct.ewah_bitmap = type { ptr, i64, i64, i64, ptr }
%struct.cache_entry = type { %struct.hashmap_entry, %struct.stat_data, i32, i32, i32, i32, i32, %struct.object_id, [0 x i8] }
%struct.hashmap_entry = type { ptr, i32 }
%struct.stat_data = type { %struct.cache_time, %struct.cache_time, i32, i32, i32, i32, i32 }

@trace_fsmonitor = dso_local global { ptr, i32, i8, [3 x i8] } { ptr @.str, i32 0, i8 0, [3 x i8] zeroinitializer }, align 8
@.str.5 = private unnamed_addr constant [12 x i8] c"fsmonitor.c\00", align 1
@.str.26 = private unnamed_addr constant [17 x i8] c"remove fsmonitor\00", align 1
@.str.27 = private unnamed_addr constant [59 x i8] c"fsmonitor_dirty has more entries than the index (%lu > %u)\00", align 1

; Function Attrs: inlinehint nounwind uwtable
define internal i32 @trace_pass_fl(ptr noundef %0) #4 {
  %2 = alloca ptr, align 8
  store ptr %0, ptr %2, align 8, !tbaa !44
  %3 = load ptr, ptr %2, align 8, !tbaa !44
  %4 = getelementptr inbounds nuw %struct.trace_key, ptr %3, i32 0, i32 1
  %5 = load i32, ptr %4, align 8, !tbaa !46
  %6 = icmp ne i32 %5, 0
  br i1 %6, label %15, label %7

7:                                                ; preds = %1
  %8 = load ptr, ptr %2, align 8, !tbaa !44
  %9 = getelementptr inbounds nuw %struct.trace_key, ptr %8, i32 0, i32 2
  %10 = load i8, ptr %9, align 4
  %11 = and i8 %10, 1
  %12 = zext i8 %11 to i32
  %13 = icmp ne i32 %12, 0
  %14 = xor i1 %13, true
  br label %15

15:                                               ; preds = %7, %1
  %16 = phi i1 [ true, %1 ], [ %14, %7 ]
  %17 = zext i1 %16 to i32
  ret i32 %17
}

; Function Attrs: nounwind uwtable
define dso_local void @remove_fsmonitor(ptr noundef %0) #0 {
  %2 = alloca ptr, align 8
  store ptr %0, ptr %2, align 8, !tbaa !4
  %3 = load ptr, ptr %2, align 8, !tbaa !4
  %4 = getelementptr inbounds nuw %struct.index_state, ptr %3, i32 0, i32 15
  %5 = load ptr, ptr %4, align 8, !tbaa !18
  %6 = icmp ne ptr %5, null
  br i1 %6, label %7, label %25

7:                                                ; preds = %1
  br label %8

8:                                                ; preds = %7
  %9 = call i32 @trace_pass_fl(ptr noundef @trace_fsmonitor)
  %10 = icmp ne i32 %9, 0
  br i1 %10, label %11, label %12

11:                                               ; preds = %8
  call void (ptr, i32, ptr, ptr, ...) @trace_printf_key_fl(ptr noundef @.str.5, i32 noundef 786, ptr noundef @trace_fsmonitor, ptr noundef @.str.26)
  br label %12

12:                                               ; preds = %11, %8
  br label %13

13:                                               ; preds = %12
  %14 = load ptr, ptr %2, align 8, !tbaa !4
  %15 = getelementptr inbounds nuw %struct.index_state, ptr %14, i32 0, i32 4
  %16 = load i32, ptr %15, align 4, !tbaa !58
  %17 = or i32 %16, 256
  store i32 %17, ptr %15, align 4, !tbaa !58
  br label %18

18:                                               ; preds = %13
  %19 = load ptr, ptr %2, align 8, !tbaa !4
  %20 = getelementptr inbounds nuw %struct.index_state, ptr %19, i32 0, i32 15
  %21 = load ptr, ptr %20, align 8, !tbaa !18
  call void @free(ptr noundef %21) #8
  %22 = load ptr, ptr %2, align 8, !tbaa !4
  %23 = getelementptr inbounds nuw %struct.index_state, ptr %22, i32 0, i32 15
  store ptr null, ptr %23, align 8, !tbaa !18
  br label %24

24:                                               ; preds = %18
  br label %25

25:                                               ; preds = %24, %1
  ret void
}

; Function Attrs: nounwind uwtable
define internal void @assert_index_minimum(ptr noundef %0, i64 noundef %1) #0 {
  %3 = alloca ptr, align 8
  %4 = alloca i64, align 8
  store ptr %0, ptr %3, align 8, !tbaa !4
  store i64 %1, ptr %4, align 8, !tbaa !10
  %5 = load i64, ptr %4, align 8, !tbaa !10
  %6 = load ptr, ptr %3, align 8, !tbaa !4
  %7 = getelementptr inbounds nuw %struct.index_state, ptr %6, i32 0, i32 2
  %8 = load i32, ptr %7, align 4, !tbaa !43
  %9 = zext i32 %8 to i64
  %10 = icmp ugt i64 %5, %9
  br i1 %10, label %11, label %16

11:                                               ; preds = %2
  %12 = load i64, ptr %4, align 8, !tbaa !10
  %13 = load ptr, ptr %3, align 8, !tbaa !4
  %14 = getelementptr inbounds nuw %struct.index_state, ptr %13, i32 0, i32 2
  %15 = load i32, ptr %14, align 4, !tbaa !43
  call void (ptr, i32, ptr, ...) @BUG_fl(ptr noundef @.str.5, i32 noundef 28, ptr noundef @.str.27, i64 noundef %12, i32 noundef %15) #10
  unreachable

16:                                               ; preds = %2
  ret void
}

; Function Attrs: nounwind uwtable
define dso_local void @tweak_fsmonitor(ptr noundef %0) #0 {
  %2 = alloca ptr, align 8
  %3 = alloca i32, align 4
  %4 = alloca i32, align 4
  store ptr %0, ptr %2, align 8, !tbaa !4
  call void @llvm.lifetime.start.p0(i64 4, ptr %3) #8
  call void @llvm.lifetime.start.p0(i64 4, ptr %4) #8
  %5 = load ptr, ptr %2, align 8, !tbaa !4
  %6 = getelementptr inbounds nuw %struct.index_state, ptr %5, i32 0, i32 19
  %7 = load ptr, ptr %6, align 8, !tbaa !54
  %8 = call i32 @fsm_settings__get_mode(ptr noundef %7)
  %9 = icmp sgt i32 %8, 0
  %10 = zext i1 %9 to i32
  store i32 %10, ptr %4, align 4, !tbaa !14
  %11 = load ptr, ptr %2, align 8, !tbaa !4
  %12 = getelementptr inbounds nuw %struct.index_state, ptr %11, i32 0, i32 16
  %13 = load ptr, ptr %12, align 8, !tbaa !35
  %14 = icmp ne ptr %13, null
  br i1 %14, label %15, label %70

15:                                               ; preds = %1
  %16 = load i32, ptr %4, align 4, !tbaa !14
  %17 = icmp ne i32 %16, 0
  br i1 %17, label %18, label %64

18:                                               ; preds = %15
  store i32 0, ptr %3, align 4, !tbaa !14
  br label %19

19:                                               ; preds = %49, %18
  %20 = load i32, ptr %3, align 4, !tbaa !14
  %21 = load ptr, ptr %2, align 8, !tbaa !4
  %22 = getelementptr inbounds nuw %struct.index_state, ptr %21, i32 0, i32 2
  %23 = load i32, ptr %22, align 4, !tbaa !43
  %24 = icmp ult i32 %20, %23
  br i1 %24, label %25, label %52

25:                                               ; preds = %19
  %26 = load ptr, ptr %2, align 8, !tbaa !4
  %27 = getelementptr inbounds nuw %struct.index_state, ptr %26, i32 0, i32 0
  %28 = load ptr, ptr %27, align 8, !tbaa !48
  %29 = load i32, ptr %3, align 4, !tbaa !14
  %30 = zext i32 %29 to i64
  %31 = getelementptr inbounds nuw ptr, ptr %28, i64 %30
  %32 = load ptr, ptr %31, align 8, !tbaa !49
  %33 = getelementptr inbounds nuw %struct.cache_entry, ptr %32, i32 0, i32 2
  %34 = load i32, ptr %33, align 4, !tbaa !14
  %35 = and i32 %34, 61440
  %36 = icmp eq i32 %35, 57344
  br i1 %36, label %37, label %38

37:                                               ; preds = %25
  br label %49

38:                                               ; preds = %25
  %39 = load ptr, ptr %2, align 8, !tbaa !4
  %40 = getelementptr inbounds nuw %struct.index_state, ptr %39, i32 0, i32 0
  %41 = load ptr, ptr %40, align 8, !tbaa !48
  %42 = load i32, ptr %3, align 4, !tbaa !14
  %43 = zext i32 %42 to i64
  %44 = getelementptr inbounds nuw ptr, ptr %41, i64 %43
  %45 = load ptr, ptr %44, align 8, !tbaa !49
  %46 = getelementptr inbounds nuw %struct.cache_entry, ptr %45, i32 0, i32 3
  %47 = load i32, ptr %46, align 8, !tbaa !14
  %48 = or i32 %47, 2097152
  store i32 %48, ptr %46, align 8, !tbaa !14
  br label %49

49:                                               ; preds = %38, %37
  %50 = load i32, ptr %3, align 4, !tbaa !14
  %51 = add i32 %50, 1
  store i32 %51, ptr %3, align 4, !tbaa !14
  br label %19, !llvm.loop !65

52:                                               ; preds = %19
  %53 = load ptr, ptr %2, align 8, !tbaa !4
  %54 = load ptr, ptr %2, align 8, !tbaa !4
  %55 = getelementptr inbounds nuw %struct.index_state, ptr %54, i32 0, i32 16
  %56 = load ptr, ptr %55, align 8, !tbaa !35
  %57 = getelementptr inbounds nuw %struct.ewah_bitmap, ptr %56, i32 0, i32 3
  %58 = load i64, ptr %57, align 8, !tbaa !37
  call void @assert_index_minimum(ptr noundef %53, i64 noundef %58)
  %59 = load ptr, ptr %2, align 8, !tbaa !4
  %60 = getelementptr inbounds nuw %struct.index_state, ptr %59, i32 0, i32 16
  %61 = load ptr, ptr %60, align 8, !tbaa !35
  %62 = load ptr, ptr %2, align 8, !tbaa !4
  call void @ewah_each_bit(ptr noundef %61, ptr noundef @fsmonitor_ewah_callback, ptr noundef %62)
  %63 = load ptr, ptr %2, align 8, !tbaa !4
  call void @refresh_fsmonitor(ptr noundef %63)
  br label %64

64:                                               ; preds = %52, %15
  %65 = load ptr, ptr %2, align 8, !tbaa !4
  %66 = getelementptr inbounds nuw %struct.index_state, ptr %65, i32 0, i32 16
  %67 = load ptr, ptr %66, align 8, !tbaa !35
  call void @ewah_free(ptr noundef %67)
  %68 = load ptr, ptr %2, align 8, !tbaa !4
  %69 = getelementptr inbounds nuw %struct.index_state, ptr %68, i32 0, i32 16
  store ptr null, ptr %69, align 8, !tbaa !35
  br label %70

70:                                               ; preds = %64, %1
  %71 = load i32, ptr %4, align 4, !tbaa !14
  %72 = icmp ne i32 %71, 0
  br i1 %72, label %73, label %75

73:                                               ; preds = %70
  %74 = load ptr, ptr %2, align 8, !tbaa !4
  call void @add_fsmonitor(ptr noundef %74)
  br label %77

75:                                               ; preds = %70
  %76 = load ptr, ptr %2, align 8, !tbaa !4
  call void @remove_fsmonitor(ptr noundef %76)
  br label %77

77:                                               ; preds = %75, %73
  call void @llvm.lifetime.end.p0(i64 4, ptr %4) #8
  call void @llvm.lifetime.end.p0(i64 4, ptr %3) #8
  ret void
}