; Function Attrs: nounwind uwtable
define dso_local void @tweak_fsmonitor(ptr noundef %0) local_unnamed_addr #0 {
  %2 = getelementptr inbounds nuw i8, ptr %0, i64 240
  %3 = load ptr, ptr %2, align 8, !tbaa !45
  %4 = tail call i32 @fsm_settings__get_mode(ptr noundef %3) #8
  %5 = icmp sgt i32 %4, 0
  %6 = getelementptr inbounds nuw i8, ptr %0, i64 216
  %7 = load ptr, ptr %6, align 8, !tbaa !29
  %.not = icmp eq ptr %7, null
  br i1 %.not, label %35, label %8

8:                                                ; preds = %1
  br i1 %5, label %.preheader, label %33

.preheader:                                       ; preds = %8
  %9 = getelementptr inbounds nuw i8, ptr %0, i64 12
  %10 = load i32, ptr %9, align 4, !tbaa !34
  %.not20 = icmp eq i32 %10, 0
  br i1 %.not20, label %._crit_edge, label %.lr.ph

.lr.ph:                                           ; preds = %.preheader
  %11 = load ptr, ptr %0, align 8, !tbaa !37
  br label %12

12:                                               ; preds = %.lr.ph, %24
  %13 = phi i32 [ %10, %.lr.ph ], [ %25, %24 ]
  %indvars.iv = phi i64 [ 0, %.lr.ph ], [ %indvars.iv.next, %24 ]
  %14 = getelementptr inbounds nuw ptr, ptr %11, i64 %indvars.iv
  %15 = load ptr, ptr %14, align 8, !tbaa !38
  %16 = getelementptr inbounds nuw i8, ptr %15, i64 52
  %17 = load i32, ptr %16, align 4, !tbaa !40
  %18 = and i32 %17, 61440
  %19 = icmp eq i32 %18, 57344
  br i1 %19, label %24, label %20

20:                                               ; preds = %12
  %21 = getelementptr inbounds nuw i8, ptr %15, i64 56
  %22 = load i32, ptr %21, align 8, !tbaa !40
  %23 = or i32 %22, 2097152
  store i32 %23, ptr %21, align 8, !tbaa !40
  %.pre = load i32, ptr %9, align 4, !tbaa !34
  br label %24

24:                                               ; preds = %12, %20
  %25 = phi i32 [ %13, %12 ], [ %.pre, %20 ]
  %indvars.iv.next = add nuw nsw i64 %indvars.iv, 1
  %26 = zext i32 %25 to i64
  %27 = icmp samesign ult i64 %indvars.iv.next, %26
  br i1 %27, label %12, label %._crit_edge, !llvm.loop !57

._crit_edge:                                      ; preds = %24, %.preheader
  %.lcssa = phi i32 [ 0, %.preheader ], [ %25, %24 ]
  %28 = getelementptr inbounds nuw i8, ptr %7, i64 24
  %29 = load i64, ptr %28, align 8, !tbaa !31
  %30 = zext i32 %.lcssa to i64
  %31 = icmp ugt i64 %29, %30
  br i1 %31, label %32, label %assert_index_minimum.exit

32:                                               ; preds = %._crit_edge
  tail call void (ptr, i32, ptr, ...) @BUG_fl(ptr noundef nonnull @.str.5, i32 noundef 28, ptr noundef nonnull @.str.27, i64 noundef %29, i32 noundef %.lcssa) #10
  unreachable

assert_index_minimum.exit:                        ; preds = %._crit_edge
  tail call void @ewah_each_bit(ptr noundef nonnull %7, ptr noundef nonnull @fsmonitor_ewah_callback, ptr noundef nonnull %0) #8
  tail call void @refresh_fsmonitor(ptr noundef nonnull %0)
  %.pre23 = load ptr, ptr %6, align 8, !tbaa !29
  br label %33

33:                                               ; preds = %assert_index_minimum.exit, %8
  %34 = phi ptr [ %.pre23, %assert_index_minimum.exit ], [ %7, %8 ]
  tail call void @ewah_free(ptr noundef %34) #8
  store ptr null, ptr %6, align 8, !tbaa !29
  br label %35

35:                                               ; preds = %33, %1
  br i1 %5, label %36, label %37

36:                                               ; preds = %35
  tail call void @add_fsmonitor(ptr noundef nonnull %0)
  br label %remove_fsmonitor.exit

37:                                               ; preds = %35
  %38 = getelementptr inbounds nuw i8, ptr %0, i64 208
  %39 = load ptr, ptr %38, align 8, !tbaa !12
  %.not.i = icmp eq ptr %39, null
  br i1 %.not.i, label %remove_fsmonitor.exit, label %40

40:                                               ; preds = %37
  %trace_fsmonitor.val.i = load i32, ptr getelementptr inbounds nuw (i8, ptr @trace_fsmonitor, i64 8), align 8, !tbaa !35
  %trace_fsmonitor.val5.i = load i8, ptr getelementptr inbounds nuw (i8, ptr @trace_fsmonitor, i64 12), align 4
  %.not.i.i = icmp eq i32 %trace_fsmonitor.val.i, 0
  %41 = and i8 %trace_fsmonitor.val5.i, 1
  %.not46.i = icmp ne i8 %41, 0
  %.not4.i = select i1 %.not.i.i, i1 %.not46.i, i1 false
  br i1 %.not4.i, label %43, label %42

42:                                               ; preds = %40
  tail call void (ptr, i32, ptr, ptr, ...) @trace_printf_key_fl(ptr noundef nonnull @.str.5, i32 noundef 786, ptr noundef nonnull @trace_fsmonitor, ptr noundef nonnull @.str.26) #8
  %.pre.i = load ptr, ptr %38, align 8, !tbaa !12
  br label %43

43:                                               ; preds = %42, %40
  %44 = phi ptr [ %39, %40 ], [ %.pre.i, %42 ]
  %45 = getelementptr inbounds nuw i8, ptr %0, i64 20
  %46 = load i32, ptr %45, align 4, !tbaa !49
  %47 = or i32 %46, 256
  store i32 %47, ptr %45, align 4, !tbaa !49
  tail call void @free(ptr noundef %44) #8
  store ptr null, ptr %38, align 8, !tbaa !12
  br label %remove_fsmonitor.exit

remove_fsmonitor.exit:                            ; preds = %43, %37, %36
  ret void
}